target datalayout = "e-m:e-p270:32:32-p271:32:32-p272:64:64-i64:64-i128:128-f80:128-n8:16:32:64-S128"
target triple = "x86_64-pc-linux-gnu"

; Function Attrs: nounwind uwtable
define internal void @ps_hybrid_synthesis_deint_c(ptr noundef %0, ptr noalias noundef %1, i32 noundef %2, i32 noundef %3) #1 {
  %5 = alloca ptr, align 8
  %6 = alloca ptr, align 8
  %7 = alloca i32, align 4
  %8 = alloca i32, align 4
  %9 = alloca i32, align 4
  store ptr %0, ptr %5, align 8, !tbaa !17
  store ptr %1, ptr %6, align 8, !tbaa !17
  store i32 %2, ptr %7, align 4, !tbaa !19
  store i32 %3, ptr %8, align 4, !tbaa !19
  br label %10

10:                                               ; preds = %58, %4
  %11 = load i32, ptr %7, align 4, !tbaa !19
  %12 = icmp slt i32 %11, 64
  br i1 %12, label %13, label %61

13:                                               ; preds = %10
  call void @llvm.lifetime.start.p0(i64 4, ptr %9) #4
  store i32 0, ptr %9, align 4, !tbaa !19
  br label %14

14:                                               ; preds = %54, %13
  %15 = load i32, ptr %9, align 4, !tbaa !19
  %16 = load i32, ptr %8, align 4, !tbaa !19
  %17 = icmp slt i32 %15, %16
  br i1 %17, label %19, label %18

18:                                               ; preds = %14
  call void @llvm.lifetime.end.p0(i64 4, ptr %9) #4
  br label %57

19:                                               ; preds = %14
  %20 = load ptr, ptr %6, align 8, !tbaa !17
  %21 = load i32, ptr %7, align 4, !tbaa !19
  %22 = sext i32 %21 to i64
  %23 = getelementptr inbounds [32 x [2 x float]], ptr %20, i64 %22
  %24 = load i32, ptr %9, align 4, !tbaa !19
  %25 = sext i32 %24 to i64
  %26 = getelementptr inbounds [32 x [2 x float]], ptr %23, i64 0, i64 %25
  %27 = getelementptr inbounds [2 x float], ptr %26, i64 0, i64 0
  %28 = load float, ptr %27, align 4, !tbaa !21
  %29 = load ptr, ptr %5, align 8, !tbaa !17
  %30 = getelementptr inbounds [38 x [64 x float]], ptr %29, i64 0
  %31 = load i32, ptr %9, align 4, !tbaa !19
  %32 = sext i32 %31 to i64
  %33 = getelementptr inbounds [38 x [64 x float]], ptr %30, i64 0, i64 %32
  %34 = load i32, ptr %7, align 4, !tbaa !19
  %35 = sext i32 %34 to i64
  %36 = getelementptr inbounds [64 x float], ptr %33, i64 0, i64 %35
  store float %28, ptr %36, align 4, !tbaa !21
  %37 = load ptr, ptr %6, align 8, !tbaa !17
  %38 = load i32, ptr %7, align 4, !tbaa !19
  %39 = sext i32 %38 to i64
  %40 = getelementptr inbounds [32 x [2 x float]], ptr %37, i64 %39
  %41 = load i32, ptr %9, align 4, !tbaa !19
  %42 = sext i32 %41 to i64
  %43 = getelementptr inbounds [32 x [2 x float]], ptr %40, i64 0, i64 %42
  %44 = getelementptr inbounds [2 x float], ptr %43, i64 0, i64 1
  %45 = load float, ptr %44, align 4, !tbaa !21
  %46 = load ptr, ptr %5, align 8, !tbaa !17
  %47 = getelementptr inbounds [38 x [64 x float]], ptr %46, i64 1
  %48 = load i32, ptr %9, align 4, !tbaa !19
  %49 = sext i32 %48 to i64
  %50 = getelementptr inbounds [38 x [64 x float]], ptr %47, i64 0, i64 %49
  %51 = load i32, ptr %7, align 4, !tbaa !19
  %52 = sext i32 %51 to i64
  %53 = getelementptr inbounds [64 x float], ptr %50, i64 0, i64 %52
  store float %45, ptr %53, align 4, !tbaa !21
  br label %54

54:                                               ; preds = %19
  %55 = load i32, ptr %9, align 4, !tbaa !19
  %56 = add nsw i32 %55, 1
  store i32 %56, ptr %9, align 4, !tbaa !19
  br label %14, !llvm.loop !33

57:                                               ; preds = %18
  br label %58

58:                                               ; preds = %57
  %59 = load i32, ptr %7, align 4, !tbaa !19
  %60 = add nsw i32 %59, 1
  store i32 %60, ptr %7, align 4, !tbaa !19
  br label %10, !llvm.loop !34

61:                                               ; preds = %10
  ret void
}